
program.debug.elf:     file format elf32-littleriscv


Disassembly of section .text:

00000000 <start-0x4>:
   0:	00800113          	addi	sp,zero,8

00000004 <start>:
   4:	000021b7          	lui	gp,0x2
   8:	7bb18193          	addi	gp,gp,1979 # 27bb <_ebss+0x26bb>
   c:	01019193          	slli	gp,gp,0x10
  10:	000030b7          	lui	ra,0x3
  14:	ee608093          	addi	ra,ra,-282 # 2ee6 <_ebss+0x2de6>
  18:	0011e1b3          	or	gp,gp,ra
  1c:	000010b7          	lui	ra,0x1
  20:	87b08093          	addi	ra,ra,-1925 # 87b <_ebss+0x77b>
  24:	00c19193          	slli	gp,gp,0xc
  28:	0011e1b3          	or	gp,gp,ra
  2c:	0b000093          	addi	ra,zero,176
  30:	00c19193          	slli	gp,gp,0xc
  34:	0011e1b3          	or	gp,gp,ra
  38:	0fd00093          	addi	ra,zero,253
  3c:	00819193          	slli	gp,gp,0x8
  40:	0011e1b3          	or	gp,gp,ra
  44:	00001237          	lui	tp,0x1
  48:	b5020213          	addi	tp,tp,-1200 # b50 <_ebss+0xa50>
  4c:	00c21213          	slli	tp,tp,0xc
  50:	4f300093          	addi	ra,zero,1267
  54:	00126233          	or	tp,tp,ra
  58:	02d00093          	addi	ra,zero,45
  5c:	00421213          	slli	tp,tp,0x4
  60:	00126233          	or	tp,tp,ra
  64:	00000293          	addi	t0,zero,0

00000068 <loop>:
  68:	00128293          	addi	t0,t0,1
  6c:	0102a313          	slti	t1,t0,16
  70:	023105b3          	mul	a1,sp,gp
  74:	004585b3          	add	a1,a1,tp
  78:	02358633          	mul	a2,a1,gp
  7c:	00460633          	add	a2,a2,tp
  80:	023606b3          	mul	a3,a2,gp
  84:	004686b3          	add	a3,a3,tp
  88:	02368133          	mul	sp,a3,gp
  8c:	00410133          	add	sp,sp,tp
  90:	0105d593          	srli	a1,a1,0x10
  94:	01065613          	srli	a2,a2,0x10
  98:	0106d693          	srli	a3,a3,0x10
  9c:	01015713          	srli	a4,sp,0x10
  a0:	01008093          	addi	ra,ra,16
  a4:	fc0312e3          	bne	t1,zero,68 <loop>
  a8:	10500073          	wfi
	...
